target datalayout = "e-m:e-p270:32:32-p271:32:32-p272:64:64-i64:64-i128:128-f80:128-n8:16:32:64-S128"
target triple = "x86_64-pc-linux-gnu"

%struct.SN_env = type { ptr, i32, i32, i32, i32, i32, ptr, ptr }

; Function Attrs: nounwind uwtable
define internal i32 @r_R2(ptr noundef %0) #0 {
  %2 = alloca i32, align 4
  %3 = alloca ptr, align 8
  store ptr %0, ptr %3, align 8
  %4 = load ptr, ptr %3, align 8
  %5 = getelementptr inbounds nuw %struct.SN_env, ptr %4, i32 0, i32 7
  %6 = load ptr, ptr %5, align 8
  %7 = getelementptr inbounds i32, ptr %6, i64 0
  %8 = load i32, ptr %7, align 4
  %9 = load ptr, ptr %3, align 8
  %10 = getelementptr inbounds nuw %struct.SN_env, ptr %9, i32 0, i32 1
  %11 = load i32, ptr %10, align 8
  %12 = icmp sle i32 %8, %11
  br i1 %12, label %14, label %13

13:                                               ; preds = %1
  store i32 0, ptr %2, align 4
  br label %15

14:                                               ; preds = %1
  store i32 1, ptr %2, align 4
  br label %15

15:                                               ; preds = %14, %13
  %16 = load i32, ptr %2, align 4
  ret i32 %16
}

; Function Attrs: nounwind uwtable
define internal i32 @r_Step_5b(ptr noundef %0) #0 {
  %2 = alloca i32, align 4
  %3 = alloca ptr, align 8
  %4 = alloca i32, align 4
  %5 = alloca i32, align 4
  %6 = alloca i32, align 4
  store ptr %0, ptr %3, align 8
  %7 = load ptr, ptr %3, align 8
  %8 = getelementptr inbounds nuw %struct.SN_env, ptr %7, i32 0, i32 1
  %9 = load i32, ptr %8, align 8
  %10 = load ptr, ptr %3, align 8
  %11 = getelementptr inbounds nuw %struct.SN_env, ptr %10, i32 0, i32 5
  store i32 %9, ptr %11, align 8
  %12 = load ptr, ptr %3, align 8
  %13 = getelementptr inbounds nuw %struct.SN_env, ptr %12, i32 0, i32 1
  %14 = load i32, ptr %13, align 8
  %15 = load ptr, ptr %3, align 8
  %16 = getelementptr inbounds nuw %struct.SN_env, ptr %15, i32 0, i32 3
  %17 = load i32, ptr %16, align 8
  %18 = icmp sle i32 %14, %17
  br i1 %18, label %32, label %19

19:                                               ; preds = %1
  %20 = load ptr, ptr %3, align 8
  %21 = getelementptr inbounds nuw %struct.SN_env, ptr %20, i32 0, i32 0
  %22 = load ptr, ptr %21, align 8
  %23 = load ptr, ptr %3, align 8
  %24 = getelementptr inbounds nuw %struct.SN_env, ptr %23, i32 0, i32 1
  %25 = load i32, ptr %24, align 8
  %26 = sub i32 %25, 1
  %27 = sext i32 %26 to i64
  %28 = getelementptr inbounds i8, ptr %22, i64 %27
  %29 = load i8, ptr %28, align 1
  %30 = zext i8 %29 to i32
  %31 = icmp ne i32 %30, 108
  br i1 %31, label %32, label %33

32:                                               ; preds = %19, %1
  store i32 0, ptr %2, align 4
  br label %89

33:                                               ; preds = %19
  %34 = load ptr, ptr %3, align 8
  %35 = getelementptr inbounds nuw %struct.SN_env, ptr %34, i32 0, i32 1
  %36 = load i32, ptr %35, align 8
  %37 = add i32 %36, -1
  store i32 %37, ptr %35, align 8
  %38 = load ptr, ptr %3, align 8
  %39 = getelementptr inbounds nuw %struct.SN_env, ptr %38, i32 0, i32 1
  %40 = load i32, ptr %39, align 8
  %41 = load ptr, ptr %3, align 8
  %42 = getelementptr inbounds nuw %struct.SN_env, ptr %41, i32 0, i32 4
  store i32 %40, ptr %42, align 4
  call void @llvm.lifetime.start.p0(i64 4, ptr %4) #3
  %43 = load ptr, ptr %3, align 8
  %44 = call i32 @r_R2(ptr noundef %43)
  store i32 %44, ptr %4, align 4
  %45 = load i32, ptr %4, align 4
  %46 = icmp sle i32 %45, 0
  br i1 %46, label %47, label %49

47:                                               ; preds = %33
  %48 = load i32, ptr %4, align 4
  store i32 %48, ptr %2, align 4
  store i32 1, ptr %5, align 4
  br label %50

49:                                               ; preds = %33
  store i32 0, ptr %5, align 4
  br label %50

50:                                               ; preds = %49, %47
  call void @llvm.lifetime.end.p0(i64 4, ptr %4) #3
  %51 = load i32, ptr %5, align 4
  switch i32 %51, label %91 [
    i32 0, label %52
    i32 1, label %89
  ]

52:                                               ; preds = %50
  %53 = load ptr, ptr %3, align 8
  %54 = getelementptr inbounds nuw %struct.SN_env, ptr %53, i32 0, i32 1
  %55 = load i32, ptr %54, align 8
  %56 = load ptr, ptr %3, align 8
  %57 = getelementptr inbounds nuw %struct.SN_env, ptr %56, i32 0, i32 3
  %58 = load i32, ptr %57, align 8
  %59 = icmp sle i32 %55, %58
  br i1 %59, label %73, label %60

60:                                               ; preds = %52
  %61 = load ptr, ptr %3, align 8
  %62 = getelementptr inbounds nuw %struct.SN_env, ptr %61, i32 0, i32 0
  %63 = load ptr, ptr %62, align 8
  %64 = load ptr, ptr %3, align 8
  %65 = getelementptr inbounds nuw %struct.SN_env, ptr %64, i32 0, i32 1
  %66 = load i32, ptr %65, align 8
  %67 = sub i32 %66, 1
  %68 = sext i32 %67 to i64
  %69 = getelementptr inbounds i8, ptr %63, i64 %68
  %70 = load i8, ptr %69, align 1
  %71 = zext i8 %70 to i32
  %72 = icmp ne i32 %71, 108
  br i1 %72, label %73, label %74

73:                                               ; preds = %60, %52
  store i32 0, ptr %2, align 4
  br label %89

74:                                               ; preds = %60
  %75 = load ptr, ptr %3, align 8
  %76 = getelementptr inbounds nuw %struct.SN_env, ptr %75, i32 0, i32 1
  %77 = load i32, ptr %76, align 8
  %78 = add i32 %77, -1
  store i32 %78, ptr %76, align 8
  call void @llvm.lifetime.start.p0(i64 4, ptr %6) #3
  %79 = load ptr, ptr %3, align 8
  %80 = call i32 @slice_del(ptr noundef %79)
  store i32 %80, ptr %6, align 4
  %81 = load i32, ptr %6, align 4
  %82 = icmp slt i32 %81, 0
  br i1 %82, label %83, label %85

83:                                               ; preds = %74
  %84 = load i32, ptr %6, align 4
  store i32 %84, ptr %2, align 4
  store i32 1, ptr %5, align 4
  br label %86

85:                                               ; preds = %74
  store i32 0, ptr %5, align 4
  br label %86

86:                                               ; preds = %85, %83
  call void @llvm.lifetime.end.p0(i64 4, ptr %6) #3
  %87 = load i32, ptr %5, align 4
  switch i32 %87, label %91 [
    i32 0, label %88
    i32 1, label %89
  ]

88:                                               ; preds = %86
  store i32 1, ptr %2, align 4
  br label %89

89:                                               ; preds = %88, %86, %73, %50, %32
  %90 = load i32, ptr %2, align 4
  ret i32 %90

91:                                               ; preds = %86, %50
  unreachable
}